target datalayout = "e-m:e-p270:32:32-p271:32:32-p272:64:64-i64:64-i128:128-f80:128-n8:16:32:64-S128"
target triple = "x86_64-pc-linux-gnu"

%"class.btInverseDynamicsBullet3::MultiBodyTree" = type { i8, i8, i8, ptr, ptr }

@.str = private unnamed_addr constant [17 x i8] c"b3Error[%s,%d]:\0A\00", align 1
@.str.1 = private unnamed_addr constant [137 x i8] c"generated/home/dtcxzyw/WorkSpace/Projects/compilers/llvm-opt-benchmark/bench/bullet3/bullet3/src/BulletInverseDynamics/MultiBodyTree.cpp\00", align 1
@.str.2 = private unnamed_addr constant [33 x i8] c"system has not been initialized\0A\00", align 1
@.str.6 = private unnamed_addr constant [31 x i8] c"error in jacobian calculation\0A\00", align 1

; Function Attrs: mustprogress uwtable
define dso_local noundef i32 @_ZN24btInverseDynamicsBullet313MultiBodyTree18calculateJacobiansERKNS_4vecxES3_(ptr noundef nonnull align 8 dereferenceable(24) %0, ptr noundef nonnull align 8 dereferenceable(32) %1, ptr noundef nonnull align 8 dereferenceable(32) %2) #2 align 2 {
  %4 = alloca i32, align 4
  %5 = alloca ptr, align 8
  %6 = alloca ptr, align 8
  %7 = alloca ptr, align 8
  store ptr %0, ptr %5, align 8, !tbaa !12
  store ptr %1, ptr %6, align 8, !tbaa !59
  store ptr %2, ptr %7, align 8, !tbaa !59
  %8 = load ptr, ptr %5, align 8
  %9 = getelementptr inbounds nuw %"class.btInverseDynamicsBullet3::MultiBodyTree", ptr %8, i32 0, i32 0
  %10 = load i8, ptr %9, align 8, !tbaa !14, !range !29, !noundef !30
  %11 = trunc i8 %10 to i1
  %12 = zext i1 %11 to i32
  %13 = icmp eq i32 0, %12
  br i1 %13, label %14, label %17

14:                                               ; preds = %3
  br label %15

15:                                               ; preds = %14
  call void (ptr, ...) @b3OutputErrorMessageVarArgsInternal(ptr noundef @.str, ptr noundef @.str.1, i32 noundef 197)
  call void (ptr, ...) @b3OutputErrorMessageVarArgsInternal(ptr noundef @.str.2)
  br label %16

16:                                               ; preds = %15
  store i32 -1, ptr %4, align 4
  br label %28

17:                                               ; preds = %3
  %18 = getelementptr inbounds nuw %"class.btInverseDynamicsBullet3::MultiBodyTree", ptr %8, i32 0, i32 3
  %19 = load ptr, ptr %18, align 8, !tbaa !21
  %20 = load ptr, ptr %6, align 8, !tbaa !59
  %21 = load ptr, ptr %7, align 8, !tbaa !59
  %22 = call noundef i32 @_ZN24btInverseDynamicsBullet313MultiBodyTree13MultiBodyImpl18calculateJacobiansERKNS_4vecxES4_NS1_13KinUpdateTypeE(ptr noundef nonnull align 8 dereferenceable(400) %19, ptr noundef nonnull align 8 dereferenceable(32) %20, ptr noundef nonnull align 8 dereferenceable(32) %21, i32 noundef 1)
  %23 = icmp eq i32 -1, %22
  br i1 %23, label %24, label %27

24:                                               ; preds = %17
  br label %25

25:                                               ; preds = %24
  call void (ptr, ...) @b3OutputErrorMessageVarArgsInternal(ptr noundef @.str, ptr noundef @.str.1, i32 noundef 203)
  call void (ptr, ...) @b3OutputErrorMessageVarArgsInternal(ptr noundef @.str.6)
  br label %26

26:                                               ; preds = %25
  store i32 -1, ptr %4, align 4
  br label %28

27:                                               ; preds = %17
  store i32 0, ptr %4, align 4
  br label %28

28:                                               ; preds = %27, %26, %16
  %29 = load i32, ptr %4, align 4
  ret i32 %29
}